; Function Attrs: nounwind uwtable
define noalias nonnull ptr @l_Array_foldlMUnsafe_fold___at___private_Lean_Data_Lsp_LanguageFeatures_0__Lean_Lsp_hashCompletionItem____x40_Lean_Data_Lsp_LanguageFeatures___hyg_2667____spec__1___boxed(ptr noundef %0, ptr noundef %1, ptr noundef %2, ptr noundef %3, ptr noundef %4) local_unnamed_addr #0 {
  %6 = getelementptr i8, ptr %0, i64 8
  %.val28 = load i64, ptr %6, align 8, !tbaa !12
  %7 = ptrtoint ptr %0 to i64
  %8 = and i64 %7, 1
  %.not = icmp eq i64 %8, 0
  br i1 %.not, label %9, label %lean_dec.exit18

9:                                                ; preds = %5
  %10 = load i32, ptr %0, align 4, !tbaa !8
  %11 = icmp sgt i32 %10, 1
  br i1 %11, label %12, label %14, !prof !11

12:                                               ; preds = %9
  %13 = add nsw i32 %10, -1
  store i32 %13, ptr %0, align 4, !tbaa !8
  br label %lean_dec.exit18

14:                                               ; preds = %9
  %.not.i = icmp eq i32 %10, 0
  br i1 %.not.i, label %lean_dec.exit18, label %15

15:                                               ; preds = %14
  tail call void @lean_dec_ref_cold(ptr noundef nonnull %0) #9
  br label %lean_dec.exit18

lean_dec.exit18:                                  ; preds = %15, %14, %12, %5
  %16 = getelementptr i8, ptr %2, i64 8
  %.val27 = load i64, ptr %16, align 8, !tbaa !12
  %17 = ptrtoint ptr %2 to i64
  %18 = and i64 %17, 1
  %.not31 = icmp eq i64 %18, 0
  br i1 %.not31, label %19, label %lean_dec.exit17

19:                                               ; preds = %lean_dec.exit18
  %20 = load i32, ptr %2, align 4, !tbaa !8
  %21 = icmp sgt i32 %20, 1
  br i1 %21, label %22, label %24, !prof !11

22:                                               ; preds = %19
  %23 = add nsw i32 %20, -1
  store i32 %23, ptr %2, align 4, !tbaa !8
  br label %lean_dec.exit17

24:                                               ; preds = %19
  %.not.i19 = icmp eq i32 %20, 0
  br i1 %.not.i19, label %lean_dec.exit17, label %25

25:                                               ; preds = %24
  tail call void @lean_dec_ref_cold(ptr noundef nonnull %2) #9
  br label %lean_dec.exit17

lean_dec.exit17:                                  ; preds = %25, %24, %22, %lean_dec.exit18
  %26 = getelementptr i8, ptr %3, i64 8
  %.val = load i64, ptr %26, align 8, !tbaa !12
  %27 = ptrtoint ptr %3 to i64
  %28 = and i64 %27, 1
  %.not32 = icmp eq i64 %28, 0
  br i1 %.not32, label %29, label %lean_dec.exit16

29:                                               ; preds = %lean_dec.exit17
  %30 = load i32, ptr %3, align 4, !tbaa !8
  %31 = icmp sgt i32 %30, 1
  br i1 %31, label %32, label %34, !prof !11

32:                                               ; preds = %29
  %33 = add nsw i32 %30, -1
  store i32 %33, ptr %3, align 4, !tbaa !8
  br label %lean_dec.exit16

34:                                               ; preds = %29
  %.not.i21 = icmp eq i32 %30, 0
  br i1 %.not.i21, label %lean_dec.exit16, label %35

35:                                               ; preds = %34
  tail call void @lean_dec_ref_cold(ptr noundef nonnull %3) #9
  br label %lean_dec.exit16

lean_dec.exit16:                                  ; preds = %35, %34, %32, %lean_dec.exit17
  %36 = getelementptr i8, ptr %4, i64 8
  %.val29 = load i64, ptr %36, align 8, !tbaa !12
  %37 = ptrtoint ptr %4 to i64
  %38 = and i64 %37, 1
  %.not33 = icmp eq i64 %38, 0
  br i1 %.not33, label %39, label %lean_dec.exit15

39:                                               ; preds = %lean_dec.exit16
  %40 = load i32, ptr %4, align 4, !tbaa !8
  %41 = icmp sgt i32 %40, 1
  br i1 %41, label %42, label %44, !prof !11

42:                                               ; preds = %39
  %43 = add nsw i32 %40, -1
  store i32 %43, ptr %4, align 4, !tbaa !8
  br label %lean_dec.exit15

44:                                               ; preds = %39
  %.not.i23 = icmp eq i32 %40, 0
  br i1 %.not.i23, label %lean_dec.exit15, label %45

45:                                               ; preds = %44
  tail call void @lean_dec_ref_cold(ptr noundef nonnull %4) #9
  br label %lean_dec.exit15

lean_dec.exit15:                                  ; preds = %45, %44, %42, %lean_dec.exit16
  %.not24.i = icmp eq i64 %.val27, %.val
  br i1 %.not24.i, label %l_Array_foldlMUnsafe_fold___at___private_Lean_Data_Lsp_LanguageFeatures_0__Lean_Lsp_hashCompletionItem____x40_Lean_Data_Lsp_LanguageFeatures___hyg_2667____spec__1.exit, label %.lr.ph.i

.lr.ph.i:                                         ; preds = %lean_dec.exit15, %.lr.ph.i
  %.01326.i = phi i64 [ %47, %.lr.ph.i ], [ %.val27, %lean_dec.exit15 ]
  %.01525.i = phi i64 [ %46, %.lr.ph.i ], [ %.val29, %lean_dec.exit15 ]
  %46 = tail call i64 @lean_uint64_mix_hash(i64 noundef %.01525.i, i64 noundef %.val28) #9
  %47 = add i64 %.01326.i, 1
  %.not.i30 = icmp eq i64 %47, %.val
  br i1 %.not.i30, label %l_Array_foldlMUnsafe_fold___at___private_Lean_Data_Lsp_LanguageFeatures_0__Lean_Lsp_hashCompletionItem____x40_Lean_Data_Lsp_LanguageFeatures___hyg_2667____spec__1.exit, label %.lr.ph.i

l_Array_foldlMUnsafe_fold___at___private_Lean_Data_Lsp_LanguageFeatures_0__Lean_Lsp_hashCompletionItem____x40_Lean_Data_Lsp_LanguageFeatures___hyg_2667____spec__1.exit: ; preds = %.lr.ph.i, %lean_dec.exit15
  %.015.lcssa.i = phi i64 [ %.val29, %lean_dec.exit15 ], [ %46, %.lr.ph.i ]
  %48 = ptrtoint ptr %1 to i64
  %49 = and i64 %48, 1
  %.not34 = icmp eq i64 %49, 0
  br i1 %.not34, label %50, label %lean_dec.exit

50:                                               ; preds = %l_Array_foldlMUnsafe_fold___at___private_Lean_Data_Lsp_LanguageFeatures_0__Lean_Lsp_hashCompletionItem____x40_Lean_Data_Lsp_LanguageFeatures___hyg_2667____spec__1.exit
  %51 = load i32, ptr %1, align 4, !tbaa !8
  %52 = icmp sgt i32 %51, 1
  br i1 %52, label %53, label %55, !prof !11

53:                                               ; preds = %50
  %54 = add nsw i32 %51, -1
  store i32 %54, ptr %1, align 4, !tbaa !8
  br label %lean_dec.exit

55:                                               ; preds = %50
  %.not.i25 = icmp eq i32 %51, 0
  br i1 %.not.i25, label %lean_dec.exit, label %56

56:                                               ; preds = %55
  tail call void @lean_dec_ref_cold(ptr noundef nonnull %1) #9
  br label %lean_dec.exit

lean_dec.exit:                                    ; preds = %56, %55, %53, %l_Array_foldlMUnsafe_fold___at___private_Lean_Data_Lsp_LanguageFeatures_0__Lean_Lsp_hashCompletionItem____x40_Lean_Data_Lsp_LanguageFeatures___hyg_2667____spec__1.exit
  tail call void @lean_inc_heartbeat() #9
  %57 = tail call noalias ptr @mi_malloc_small(i64 noundef 16) #9
  %58 = icmp eq ptr %57, null
  br i1 %58, label %59, label %lean_box_uint64.exit

59:                                               ; preds = %lean_dec.exit
  tail call void @lean_internal_panic_out_of_memory() #10
  unreachable

lean_box_uint64.exit:                             ; preds = %lean_dec.exit
  %60 = getelementptr inbounds nuw i8, ptr %57, i64 4
  store i32 1, ptr %57, align 4, !tbaa !8
  store i32 16, ptr %60, align 4
  %61 = getelementptr inbounds nuw i8, ptr %57, i64 8
  store i64 %.015.lcssa.i, ptr %61, align 8, !tbaa !12
  ret ptr %57
}